target datalayout = "e-m:e-p270:32:32-p271:32:32-p272:64:64-i64:64-i128:128-f80:128-n8:16:32:64-S128"
target triple = "x86_64-pc-linux-gnu"

%struct.slurm_conf_t = type { i64, ptr, i16, ptr, ptr, ptr, ptr, ptr, i16, ptr, ptr, ptr, ptr, ptr, ptr, ptr, i16, ptr, ptr, ptr, ptr, i16, ptr, ptr, ptr, i64, ptr, ptr, ptr, ptr, i16, ptr, ptr, i16, i32, ptr, i32, ptr, i32, i32, ptr, ptr, i64, i64, ptr, i16, i16, ptr, i32, i32, ptr, i32, ptr, i32, i16, i16, i16, ptr, i16, i16, ptr, ptr, i32, i16, i16, ptr, i32, i16, ptr, ptr, ptr, ptr, i16, ptr, ptr, ptr, ptr, i32, ptr, ptr, ptr, ptr, i16, i16, ptr, i32, i32, i32, i16, i16, ptr, ptr, i16, ptr, ptr, i32, i32, i32, i32, i32, i64, i32, i32, i16, ptr, ptr, i32, ptr, ptr, ptr, i16, i32, ptr, ptr, i16, ptr, ptr, i32, i16, ptr, ptr, ptr, ptr, i32, i32, i16, i16, i32, ptr, i16, ptr, i32, i32, i32, i32, i32, i32, ptr, i16, ptr, ptr, i32, i16, ptr, i32, i16, i16, ptr, ptr, ptr, i16, ptr, ptr, ptr, ptr, i16, i16, ptr, i16, ptr, i16, ptr, i16, ptr, i16, ptr, ptr, ptr, ptr, i16, ptr, ptr, ptr, i32, ptr, i32, ptr, ptr, i16, ptr, ptr, i32, i16, ptr, ptr, i16, i16, ptr, i16, ptr, ptr, ptr, i32, ptr, i16, i16, ptr, ptr, ptr, ptr, ptr, ptr, ptr, ptr, i16, i32, i16, ptr, ptr, ptr, ptr, i32, ptr, ptr, ptr, i16, ptr, ptr, ptr, i16, ptr, i16, ptr, i16, i16, ptr }

@acct_db_conn = dso_local global ptr null, align 8
@slurm_conf = external global %struct.slurm_conf_t, align 8
@clustername_existed = external global i32, align 4

; Function Attrs: nounwind uwtable
define internal void @_init_db_conn() #0 {
  %1 = alloca i32, align 4
  %2 = alloca i16, align 2
  call void @llvm.lifetime.start.p0(i64 4, ptr %1) #11
  %3 = call ptr @__errno_location() #14
  store i32 0, ptr %3, align 4
  %4 = load ptr, ptr @acct_db_conn, align 8
  %5 = icmp ne ptr %4, null
  br i1 %5, label %6, label %8

6:                                                ; preds = %0
  %7 = call i32 @acct_storage_g_close_connection(ptr noundef @acct_db_conn)
  br label %8

8:                                                ; preds = %6, %0
  %9 = load ptr, ptr getelementptr inbounds nuw (%struct.slurm_conf_t, ptr @slurm_conf, i32 0, i32 31), align 8
  %10 = call ptr @acct_storage_g_get_connection(i32 noundef 0, ptr noundef null, i1 noundef zeroext false, ptr noundef %9)
  store ptr %10, ptr @acct_db_conn, align 8
  %11 = load ptr, ptr @acct_db_conn, align 8
  %12 = load i32, ptr getelementptr inbounds nuw (%struct.slurm_conf_t, ptr @slurm_conf, i32 0, i32 181), align 8
  %13 = trunc i32 %12 to i16
  %14 = call i32 @clusteracct_storage_g_register_ctld(ptr noundef %11, i16 noundef zeroext %13)
  store i32 %14, ptr %1, align 4
  %15 = load i32, ptr %1, align 4
  %16 = sext i32 %15 to i64
  %17 = and i64 %16, 2147483648
  %18 = icmp ne i64 %17, 0
  br i1 %18, label %19, label %47

19:                                               ; preds = %8
  call void @llvm.lifetime.start.p0(i64 2, ptr %2) #11
  %20 = load i32, ptr %1, align 4
  %21 = sext i32 %20 to i64
  %22 = and i64 %21, -2147483649
  %23 = trunc i64 %22 to i16
  store i16 %23, ptr %2, align 2
  %24 = load i16, ptr getelementptr inbounds nuw (%struct.slurm_conf_t, ptr @slurm_conf, i32 0, i32 30), align 8
  %25 = zext i16 %24 to i32
  %26 = icmp ne i32 %25, 0
  br i1 %26, label %27, label %39

27:                                               ; preds = %19
  %28 = load i16, ptr %2, align 2
  %29 = zext i16 %28 to i32
  %30 = load i16, ptr getelementptr inbounds nuw (%struct.slurm_conf_t, ptr @slurm_conf, i32 0, i32 30), align 8
  %31 = zext i16 %30 to i32
  %32 = icmp ne i32 %29, %31
  br i1 %32, label %33, label %39

33:                                               ; preds = %27
  %34 = load i16, ptr getelementptr inbounds nuw (%struct.slurm_conf_t, ptr @slurm_conf, i32 0, i32 30), align 8
  %35 = zext i16 %34 to i32
  %36 = load i16, ptr %2, align 2
  %37 = zext i16 %36 to i32
  %38 = load ptr, ptr getelementptr inbounds nuw (%struct.slurm_conf_t, ptr @slurm_conf, i32 0, i32 199), align 8
  call void (ptr, ...) @fatal(ptr noundef @.str.178, i32 noundef %35, i32 noundef %37, ptr noundef %38) #12
  unreachable

39:                                               ; preds = %27, %19
  %40 = load i16, ptr getelementptr inbounds nuw (%struct.slurm_conf_t, ptr @slurm_conf, i32 0, i32 30), align 8
  %41 = icmp ne i16 %40, 0
  br i1 %41, label %44, label %42

42:                                               ; preds = %39
  %43 = load i16, ptr %2, align 2
  store i16 %43, ptr getelementptr inbounds nuw (%struct.slurm_conf_t, ptr @slurm_conf, i32 0, i32 30), align 8
  call void @_create_clustername_file()
  br label %45

44:                                               ; preds = %39
  store i32 1, ptr @clustername_existed, align 4
  br label %45

45:                                               ; preds = %44, %42
  br label %46

46:                                               ; preds = %45
  call void @llvm.lifetime.end.p0(i64 2, ptr %2) #11
  br label %47

47:                                               ; preds = %46, %8
  call void @llvm.lifetime.end.p0(i64 4, ptr %1) #11
  ret void
}