; Function Attrs: nounwind uwtable
define internal fastcc void @_init_db_conn() unnamed_addr #6 {
  %1 = tail call ptr @__errno_location() #21
  store i32 0, ptr %1, align 4
  %2 = load ptr, ptr @acct_db_conn, align 8
  %.not = icmp eq ptr %2, null
  br i1 %.not, label %5, label %3

3:                                                ; preds = %0
  %4 = tail call i32 @acct_storage_g_close_connection(ptr noundef nonnull @acct_db_conn) #19
  br label %5

5:                                                ; preds = %3, %0
  %6 = load ptr, ptr getelementptr inbounds nuw (i8, ptr @slurm_conf, i64 248), align 8
  %7 = tail call ptr @acct_storage_g_get_connection(i32 noundef 0, ptr noundef null, i1 noundef zeroext false, ptr noundef %6) #19
  store ptr %7, ptr @acct_db_conn, align 8
  %8 = load i32, ptr getelementptr inbounds nuw (i8, ptr @slurm_conf, i64 1216), align 8
  %9 = trunc i32 %8 to i16
  %10 = tail call i32 @clusteracct_storage_g_register_ctld(ptr noundef %7, i16 noundef zeroext %9) #19
  %.not6 = icmp sgt i32 %10, -1
  br i1 %.not6, label %21, label %11

11:                                               ; preds = %5
  %12 = load i16, ptr getelementptr inbounds nuw (i8, ptr @slurm_conf, i64 240), align 8
  %13 = zext i16 %12 to i32
  %.not7 = icmp eq i16 %12, 0
  br i1 %.not7, label %18, label %14

14:                                               ; preds = %11
  %15 = and i32 %10, 65535
  %.not8 = icmp eq i32 %15, %13
  br i1 %.not8, label %20, label %16

16:                                               ; preds = %14
  %17 = load ptr, ptr getelementptr inbounds nuw (i8, ptr @slurm_conf, i64 1336), align 8
  tail call void (ptr, ...) @fatal(ptr noundef nonnull @.str.178, i32 noundef %13, i32 noundef %15, ptr noundef %17) #20
  unreachable

18:                                               ; preds = %11
  %19 = trunc i32 %10 to i16
  store i16 %19, ptr getelementptr inbounds nuw (i8, ptr @slurm_conf, i64 240), align 8
  tail call fastcc void @_create_clustername_file()
  br label %21

20:                                               ; preds = %14
  store i32 1, ptr @clustername_existed, align 4
  br label %21

21:                                               ; preds = %20, %18, %5
  ret void
}